; Function Attrs: mustprogress uwtable
define hidden void @_ZN3ade5Graph5eraseERKNS_6HandleINS_4EdgeEEE(ptr noundef nonnull align 8 dereferenceable(168) %0, ptr noundef nonnull readonly align 8 captures(none) dereferenceable(16) %1) local_unnamed_addr #2 align 2 personality ptr @__gxx_personality_v0 {
  %3 = getelementptr inbounds nuw i8, ptr %1, i64 8
  %4 = load ptr, ptr %3, align 8, !tbaa !59, !noalias !93
  %.not.i.i.i.i.i = icmp eq ptr %4, null
  br i1 %.not.i.i.i.i.i, label %_ZNK3ade6HandleINS_4EdgeEE3getEv.exit, label %5

5:                                                ; preds = %2
  %6 = getelementptr inbounds nuw i8, ptr %4, i64 8
  %7 = load atomic i32, ptr %6 monotonic, align 8, !noalias !93
  br label %8

8:                                                ; preds = %9, %5
  %.06.i.i.i.i.i.i = phi i32 [ %7, %5 ], [ %13, %9 ]
  %.not.not.not.i.not.i.i.i.i.i = icmp eq i32 %.06.i.i.i.i.i.i, 0
  br i1 %.not.not.not.i.not.i.i.i.i.i, label %_ZNK3ade6HandleINS_4EdgeEE3getEv.exit, label %9

9:                                                ; preds = %8
  %10 = add nsw i32 %.06.i.i.i.i.i.i, 1
  %11 = cmpxchg weak ptr %6, i32 %.06.i.i.i.i.i.i, i32 %10 acq_rel monotonic, align 8, !noalias !93
  %12 = extractvalue { i32, i1 } %11, 1
  %13 = extractvalue { i32, i1 } %11, 0
  br i1 %12, label %_ZNKSt14__shared_countILN9__gnu_cxx12_Lock_policyE2EE16_M_get_use_countEv.exit.i.i.i.i, label %8, !llvm.loop !78

_ZNKSt14__shared_countILN9__gnu_cxx12_Lock_policyE2EE16_M_get_use_countEv.exit.i.i.i.i: ; preds = %9
  %14 = load atomic i32, ptr %6 monotonic, align 8, !noalias !93
  %.fr.i.i.i.i = freeze i32 %14
  %.not.i.i.i.i = icmp eq i32 %.fr.i.i.i.i, 0
  %15 = load ptr, ptr %1, align 8, !noalias !93
  %spec.select.i = select i1 %.not.i.i.i.i, ptr null, ptr %15
  %16 = load atomic i64, ptr %6 acquire, align 8
  %17 = icmp eq i64 %16, 4294967297
  %18 = trunc i64 %16 to i32
  br i1 %17, label %19, label %27

19:                                               ; preds = %_ZNKSt14__shared_countILN9__gnu_cxx12_Lock_policyE2EE16_M_get_use_countEv.exit.i.i.i.i
  store i32 0, ptr %6, align 8, !tbaa !37
  %20 = getelementptr inbounds nuw i8, ptr %4, i64 12
  store i32 0, ptr %20, align 4, !tbaa !40
  %21 = load ptr, ptr %4, align 8, !tbaa !41
  %22 = getelementptr inbounds nuw i8, ptr %21, i64 16
  %23 = load ptr, ptr %22, align 8
  tail call void %23(ptr noundef nonnull align 8 dereferenceable(16) %4) #23
  %24 = load ptr, ptr %4, align 8, !tbaa !41
  %25 = getelementptr inbounds nuw i8, ptr %24, i64 24
  %26 = load ptr, ptr %25, align 8
  tail call void %26(ptr noundef nonnull align 8 dereferenceable(16) %4) #23
  br label %_ZNK3ade6HandleINS_4EdgeEE3getEv.exit

27:                                               ; preds = %_ZNKSt14__shared_countILN9__gnu_cxx12_Lock_policyE2EE16_M_get_use_countEv.exit.i.i.i.i
  %28 = load i8, ptr @__libc_single_threaded, align 1, !tbaa !43
  %.not.i.i.i1.i = icmp eq i8 %28, 0
  br i1 %.not.i.i.i1.i, label %31, label %29

29:                                               ; preds = %27
  %30 = add nsw i32 %18, -1
  store i32 %30, ptr %6, align 4, !tbaa !44
  br label %_ZN9__gnu_cxx27__exchange_and_add_dispatchEPii.exit.i.i.i.i

31:                                               ; preds = %27
  %32 = atomicrmw volatile add ptr %6, i32 -1 acq_rel, align 4
  br label %_ZN9__gnu_cxx27__exchange_and_add_dispatchEPii.exit.i.i.i.i

_ZN9__gnu_cxx27__exchange_and_add_dispatchEPii.exit.i.i.i.i: ; preds = %31, %29
  %.0.i.i.i.i.i = phi i32 [ %18, %29 ], [ %32, %31 ]
  %33 = icmp eq i32 %.0.i.i.i.i.i, 1
  br i1 %33, label %34, label %_ZNK3ade6HandleINS_4EdgeEE3getEv.exit, !prof !45

34:                                               ; preds = %_ZN9__gnu_cxx27__exchange_and_add_dispatchEPii.exit.i.i.i.i
  tail call void @_ZNSt16_Sp_counted_baseILN9__gnu_cxx12_Lock_policyE2EE24_M_release_last_use_coldEv(ptr noundef nonnull align 8 dereferenceable(16) %4) #23
  br label %_ZNK3ade6HandleINS_4EdgeEE3getEv.exit

_ZNK3ade6HandleINS_4EdgeEE3getEv.exit:            ; preds = %8, %2, %19, %_ZN9__gnu_cxx27__exchange_and_add_dispatchEPii.exit.i.i.i.i, %34
  %35 = phi ptr [ %spec.select.i, %19 ], [ %spec.select.i, %_ZN9__gnu_cxx27__exchange_and_add_dispatchEPii.exit.i.i.i.i ], [ %spec.select.i, %34 ], [ null, %2 ], [ null, %8 ]
  tail call void @_ZN3ade5Graph10removeEdgeEPNS_4EdgeE(ptr noundef nonnull align 8 dereferenceable(168) %0, ptr noundef %35)
  ret void
}